; Function Attrs: nounwind uwtable
define void @Ssw_SmlAddPattern(ptr noundef readonly captures(none) %0, ptr readnone captures(none) %1, ptr readnone captures(none) %2) local_unnamed_addr #0 {
  %4 = getelementptr inbounds nuw i8, ptr %0, i64 64
  %5 = load ptr, ptr %4, align 8, !tbaa !51
  %6 = getelementptr inbounds nuw i8, ptr %5, i64 48
  %7 = load ptr, ptr %6, align 8, !tbaa !52
  %8 = getelementptr i8, ptr %7, i64 4
  %.val19 = load i32, ptr %8, align 4, !tbaa !27
  %9 = icmp sgt i32 %.val19, 0
  br i1 %9, label %.lr.ph, label %.critedge

.lr.ph:                                           ; preds = %3
  %10 = getelementptr inbounds nuw i8, ptr %0, i64 72
  %11 = getelementptr inbounds nuw i8, ptr %0, i64 80
  br label %12

12:                                               ; preds = %.lr.ph, %84
  %13 = phi ptr [ %5, %.lr.ph ], [ %59, %84 ]
  %indvars.iv = phi i64 [ 0, %.lr.ph ], [ %indvars.iv.next, %84 ]
  %14 = phi ptr [ %7, %.lr.ph ], [ %86, %84 ]
  %15 = getelementptr i8, ptr %14, i64 8
  %.val14 = load ptr, ptr %15, align 8, !tbaa !29
  %16 = getelementptr inbounds nuw ptr, ptr %.val14, i64 %indvars.iv
  %17 = load ptr, ptr %16, align 8, !tbaa !30
  %18 = getelementptr i8, ptr %13, i64 32
  %.val16 = load ptr, ptr %18, align 8, !tbaa !55
  %19 = getelementptr i8, ptr %17, i64 36
  %.val17 = load i32, ptr %19, align 4, !tbaa !33
  %20 = add nsw i32 %.val17, 1
  %21 = getelementptr inbounds nuw i8, ptr %.val16, i64 4
  %22 = load i32, ptr %21, align 4, !tbaa !56
  %.not.i.not.i.i = icmp slt i32 %.val17, %22
  br i1 %.not.i.not.i.i, label %Ssw_ObjSatNum.exit, label %23

23:                                               ; preds = %12
  %24 = load i32, ptr %.val16, align 8, !tbaa !58
  %25 = shl nsw i32 %24, 1
  %.not.i.i = icmp slt i32 %.val17, %25
  %.not.i.i.not.i.i = icmp sgt i32 %24, %.val17
  br i1 %.not.i.i, label %38, label %26

26:                                               ; preds = %23
  br i1 %.not.i.i.not.i.i, label %Vec_IntGrow.exit.i.i.i, label %27

27:                                               ; preds = %26
  %28 = getelementptr inbounds nuw i8, ptr %.val16, i64 8
  %29 = load ptr, ptr %28, align 8, !tbaa !59
  %.not9.i.i.i.i = icmp eq ptr %29, null
  %30 = sext i32 %20 to i64
  %31 = shl nsw i64 %30, 2
  br i1 %.not9.i.i.i.i, label %34, label %32

32:                                               ; preds = %27
  %33 = tail call ptr @realloc(ptr noundef nonnull %29, i64 noundef %31) #10
  br label %36

34:                                               ; preds = %27
  %35 = tail call noalias ptr @malloc(i64 noundef %31) #11
  br label %36

36:                                               ; preds = %34, %32
  %37 = phi ptr [ %33, %32 ], [ %35, %34 ]
  store ptr %37, ptr %28, align 8, !tbaa !59
  br label %Vec_IntGrow.exit.sink.split.i.i.i

38:                                               ; preds = %23
  br i1 %.not.i.i.not.i.i, label %Vec_IntGrow.exit.i.i.i, label %39

39:                                               ; preds = %38
  %40 = getelementptr inbounds nuw i8, ptr %.val16, i64 8
  %41 = load ptr, ptr %40, align 8, !tbaa !59
  %.not9.i21.i.i.i = icmp eq ptr %41, null
  %42 = sext i32 %25 to i64
  %43 = shl nsw i64 %42, 2
  br i1 %.not9.i21.i.i.i, label %46, label %44

44:                                               ; preds = %39
  %45 = tail call ptr @realloc(ptr noundef nonnull %41, i64 noundef %43) #10
  br label %48

46:                                               ; preds = %39
  %47 = tail call noalias ptr @malloc(i64 noundef %43) #11
  br label %48

48:                                               ; preds = %46, %44
  %49 = phi ptr [ %45, %44 ], [ %47, %46 ]
  store ptr %49, ptr %40, align 8, !tbaa !59
  br label %Vec_IntGrow.exit.sink.split.i.i.i

Vec_IntGrow.exit.sink.split.i.i.i:                ; preds = %48, %36
  %.sink.i.i.i = phi i32 [ %25, %48 ], [ %20, %36 ]
  store i32 %.sink.i.i.i, ptr %.val16, align 8, !tbaa !58
  %.pre.i.i = load i32, ptr %21, align 4, !tbaa !56
  br label %Vec_IntGrow.exit.i.i.i

Vec_IntGrow.exit.i.i.i:                           ; preds = %Vec_IntGrow.exit.sink.split.i.i.i, %38, %26
  %50 = phi i32 [ %.pre.i.i, %Vec_IntGrow.exit.sink.split.i.i.i ], [ %22, %38 ], [ %22, %26 ]
  %.not3.i.i = icmp sgt i32 %50, %.val17
  br i1 %.not3.i.i, label %._crit_edge.i.i.i, label %.lr.ph.i.i.i

.lr.ph.i.i.i:                                     ; preds = %Vec_IntGrow.exit.i.i.i
  %51 = getelementptr inbounds nuw i8, ptr %.val16, i64 8
  %52 = load ptr, ptr %51, align 8, !tbaa !59
  %53 = sext i32 %50 to i64
  %54 = shl nsw i64 %53, 2
  %scevgep.i.i.i = getelementptr i8, ptr %52, i64 %54
  %55 = sub i32 %.val17, %50
  %56 = zext i32 %55 to i64
  %57 = shl nuw nsw i64 %56, 2
  %58 = add nuw nsw i64 %57, 4
  tail call void @llvm.memset.p0.i64(ptr noundef nonnull align 4 dereferenceable(1) %scevgep.i.i.i, i8 0, i64 %58, i1 false), !tbaa !40
  br label %._crit_edge.i.i.i

._crit_edge.i.i.i:                                ; preds = %.lr.ph.i.i.i, %Vec_IntGrow.exit.i.i.i
  store i32 %20, ptr %21, align 4, !tbaa !56
  %.pre = load ptr, ptr %4, align 8, !tbaa !51
  br label %Ssw_ObjSatNum.exit

Ssw_ObjSatNum.exit:                               ; preds = %12, %._crit_edge.i.i.i
  %59 = phi ptr [ %13, %12 ], [ %.pre, %._crit_edge.i.i.i ]
  %60 = getelementptr i8, ptr %.val16, i64 8
  %.val.i.i = load ptr, ptr %60, align 8, !tbaa !59
  %61 = sext i32 %.val17 to i64
  %62 = getelementptr inbounds i32, ptr %.val.i.i, i64 %61
  %63 = load i32, ptr %62, align 4, !tbaa !40
  %64 = getelementptr inbounds nuw i8, ptr %59, i64 16
  %65 = load ptr, ptr %64, align 8, !tbaa !60
  %66 = getelementptr i8, ptr %65, i64 328
  %.val18 = load ptr, ptr %66, align 8, !tbaa !61
  %67 = sext i32 %63 to i64
  %68 = getelementptr inbounds i32, ptr %.val18, i64 %67
  %69 = load i32, ptr %68, align 4, !tbaa !40
  %.not = icmp eq i32 %69, 1
  br i1 %.not, label %70, label %84

70:                                               ; preds = %Ssw_ObjSatNum.exit
  %71 = load ptr, ptr %10, align 8, !tbaa !38
  %.val15 = load i32, ptr %17, align 8, !tbaa !39
  %72 = getelementptr i8, ptr %71, i64 8
  %.val13 = load ptr, ptr %72, align 8, !tbaa !29
  %73 = sext i32 %.val15 to i64
  %74 = getelementptr inbounds ptr, ptr %.val13, i64 %73
  %75 = load ptr, ptr %74, align 8, !tbaa !30
  %76 = load i32, ptr %11, align 8, !tbaa !48
  %77 = and i32 %76, 31
  %78 = shl nuw i32 1, %77
  %79 = ashr i32 %76, 5
  %80 = sext i32 %79 to i64
  %81 = getelementptr inbounds i32, ptr %75, i64 %80
  %82 = load i32, ptr %81, align 4, !tbaa !40
  %83 = or i32 %78, %82
  store i32 %83, ptr %81, align 4, !tbaa !40
  br label %84

84:                                               ; preds = %Ssw_ObjSatNum.exit, %70
  %indvars.iv.next = add nuw nsw i64 %indvars.iv, 1
  %85 = getelementptr inbounds nuw i8, ptr %59, i64 48
  %86 = load ptr, ptr %85, align 8, !tbaa !52
  %87 = getelementptr i8, ptr %86, i64 4
  %.val = load i32, ptr %87, align 4, !tbaa !27
  %88 = sext i32 %.val to i64
  %89 = icmp slt i64 %indvars.iv.next, %88
  br i1 %89, label %12, label %.critedge, !llvm.loop !73

.critedge:                                        ; preds = %84, %3
  ret void
}